target datalayout = "e-m:e-p270:32:32-p271:32:32-p272:64:64-i64:64-i128:128-f80:128-n8:16:32:64-S128"
target triple = "x86_64-pc-linux-gnu"

%"class.pybind11::gil_scoped_acquire" = type <{ ptr, i8, i8, [6 x i8] }>
%"class.pybind11::object" = type { %"class.pybind11::handle" }
%"class.pybind11::handle" = type { ptr }
%"class.pybind11::function" = type { %"class.pybind11::object" }
%"struct.std::type_index" = type { ptr }

@.str.17 = private unnamed_addr constant [2 x i8] c"f\00", align 1
@_ZTIZ32test_submodule_virtual_functionsRN8pybind117module_EE2A2 = internal constant { ptr, ptr } { ptr getelementptr inbounds (ptr, ptr @_ZTVN10__cxxabiv117__class_type_infoE, i64 2), ptr @_ZTSZ32test_submodule_virtual_functionsRN8pybind117module_EE2A2 }, align 8
@.str.239 = private unnamed_addr constant [7 x i8] c"A2.f()\00", align 1
@.str.241 = private unnamed_addr constant [9 x i8] c"PyA2.f()\00", align 1

; Function Attrs: mustprogress nounwind uwtable
define linkonce_odr hidden void @_ZN8pybind116handleC2Ev(ptr noundef nonnull align 8 dereferenceable(8) %0) unnamed_addr #5 comdat align 2 {
  %2 = alloca ptr, align 8
  store ptr %0, ptr %2, align 8, !tbaa !193
  %3 = load ptr, ptr %2, align 8
  %4 = getelementptr inbounds nuw %"class.pybind11::handle", ptr %3, i32 0, i32 0
  store ptr null, ptr %4, align 8, !tbaa !192
  ret void
}

; Function Attrs: mustprogress nounwind uwtable
define linkonce_odr hidden void @_ZN8pybind116objectC2Ev(ptr noundef nonnull align 8 dereferenceable(8) %0) unnamed_addr #5 comdat align 2 {
  %2 = alloca ptr, align 8
  store ptr %0, ptr %2, align 8, !tbaa !190
  %3 = load ptr, ptr %2, align 8
  call void @_ZN8pybind116handleC2Ev(ptr noundef nonnull align 8 dereferenceable(8) %3) #24
  ret void
}

; Function Attrs: mustprogress nounwind uwtable
define linkonce_odr hidden void @_ZN8pybind118functionC2Ev(ptr noundef nonnull align 8 dereferenceable(8) %0) unnamed_addr #5 comdat align 2 {
  %2 = alloca ptr, align 8
  store ptr %0, ptr %2, align 8, !tbaa !2048
  %3 = load ptr, ptr %2, align 8
  call void @_ZN8pybind116objectC2Ev(ptr noundef nonnull align 8 dereferenceable(8) %3) #24
  ret void
}

; Function Attrs: mustprogress nounwind uwtable
define linkonce_odr void @_ZNSt10type_indexC2ERKSt9type_info(ptr noundef nonnull align 8 dereferenceable(8) %0, ptr noundef nonnull align 8 dereferenceable(16) %1) unnamed_addr #5 comdat align 2 {
  %3 = alloca ptr, align 8
  %4 = alloca ptr, align 8
  store ptr %0, ptr %3, align 8, !tbaa !1002
  store ptr %1, ptr %4, align 8, !tbaa !346
  %5 = load ptr, ptr %3, align 8
  %6 = getelementptr inbounds nuw %"struct.std::type_index", ptr %5, i32 0, i32 0
  %7 = load ptr, ptr %4, align 8, !tbaa !346
  store ptr %7, ptr %6, align 8, !tbaa !1004
  ret void
}

; Function Attrs: mustprogress uwtable
define internal void @_ZZ32test_submodule_virtual_functionsRN8pybind117module_EEN2A21fEv(ptr noundef nonnull align 8 dereferenceable(8) %0) unnamed_addr #4 align 2 {
  %2 = alloca ptr, align 8
  store ptr %0, ptr %2, align 8, !tbaa !2387
  call void @_ZN8pybind115printILNS_19return_value_policyE1EJRA7_KcEEEvDpOT0_(ptr noundef nonnull align 1 dereferenceable(7) @.str.239)
  ret void
}

; Function Attrs: mustprogress nounwind uwtable
define linkonce_odr hidden void @_ZN8pybind116detail9cast_safeIvEENSt9enable_ifIXsr3std7is_voidIT_EE5valueEvE4typeEONS_6objectE(ptr noundef nonnull align 8 dereferenceable(8) %0) #5 comdat {
  %2 = alloca ptr, align 8
  store ptr %0, ptr %2, align 8, !tbaa !190
  ret void
}

; Function Attrs: mustprogress nounwind uwtable
define linkonce_odr hidden noundef zeroext i1 @_ZNK8pybind116handlecvbEv(ptr noundef nonnull align 8 dereferenceable(8) %0) #5 comdat align 2 {
  %2 = alloca ptr, align 8
  store ptr %0, ptr %2, align 8, !tbaa !193
  %3 = load ptr, ptr %2, align 8
  %4 = getelementptr inbounds nuw %"class.pybind11::handle", ptr %3, i32 0, i32 0
  %5 = load ptr, ptr %4, align 8, !tbaa !192
  %6 = icmp ne ptr %5, null
  ret i1 %6
}

; Function Attrs: mustprogress uwtable
define internal void @_ZN8pybind1112get_overrideIZ32test_submodule_virtual_functionsRNS_7module_EE2A2EENS_8functionEPKT_PKc(ptr dead_on_unwind noalias writable sret(%"class.pybind11::function") align 8 %0, ptr noundef %1, ptr noundef %2) #4 {
  %4 = alloca ptr, align 8
  %5 = alloca ptr, align 8
  %6 = alloca ptr, align 8
  %7 = alloca ptr, align 8
  %8 = alloca %"struct.std::type_index", align 8
  store ptr %0, ptr %4, align 8
  store ptr %1, ptr %5, align 8, !tbaa !2387
  store ptr %2, ptr %6, align 8, !tbaa !88
  call void @llvm.lifetime.start.p0(i64 8, ptr %7) #24
  call void @llvm.lifetime.start.p0(i64 8, ptr %8) #24
  call void @_ZNSt10type_indexC2ERKSt9type_info(ptr noundef nonnull align 8 dereferenceable(8) %8, ptr noundef nonnull align 8 dereferenceable(16) @_ZTIZ32test_submodule_virtual_functionsRN8pybind117module_EE2A2) #24
  %9 = call noundef ptr @_ZN8pybind116detail13get_type_infoERKSt10type_indexb(ptr noundef nonnull align 8 dereferenceable(8) %8, i1 noundef zeroext false)
  call void @llvm.lifetime.end.p0(i64 8, ptr %8) #24
  store ptr %9, ptr %7, align 8, !tbaa !706
  %10 = load ptr, ptr %7, align 8, !tbaa !706
  %11 = icmp ne ptr %10, null
  br i1 %11, label %12, label %16

12:                                               ; preds = %3
  %13 = load ptr, ptr %5, align 8, !tbaa !2387
  %14 = load ptr, ptr %7, align 8, !tbaa !706
  %15 = load ptr, ptr %6, align 8, !tbaa !88
  call void @_ZN8pybind116detail17get_type_overrideEPKvPKNS0_9type_infoEPKc(ptr dead_on_unwind writable sret(%"class.pybind11::function") align 8 %0, ptr noundef %13, ptr noundef %14, ptr noundef %15)
  br label %17

16:                                               ; preds = %3
  call void @llvm.memset.p0.i64(ptr align 8 %0, i8 0, i64 8, i1 false)
  call void @_ZN8pybind118functionC2Ev(ptr noundef nonnull align 8 dereferenceable(8) %0) #24
  br label %17

17:                                               ; preds = %16, %12
  call void @llvm.lifetime.end.p0(i64 8, ptr %7) #24
  ret void
}

; Function Attrs: mustprogress uwtable
define internal void @_ZZ32test_submodule_virtual_functionsRN8pybind117module_EEN4PyA21fEv(ptr noundef nonnull align 8 dereferenceable(8) %0) unnamed_addr #4 align 2 personality ptr @__gxx_personality_v0 {
  %2 = alloca ptr, align 8
  %3 = alloca %"class.pybind11::gil_scoped_acquire", align 8
  %4 = alloca %"class.pybind11::function", align 8
  %5 = alloca ptr, align 8
  %6 = alloca i32, align 4
  %7 = alloca %"class.pybind11::object", align 8
  %8 = alloca i32, align 4
  store ptr %0, ptr %2, align 8, !tbaa !2416
  %9 = load ptr, ptr %2, align 8
  call void @_ZN8pybind115printILNS_19return_value_policyE1EJRA9_KcEEEvDpOT0_(ptr noundef nonnull align 1 dereferenceable(9) @.str.241)
  br label %10

10:                                               ; preds = %1
  br label %11

11:                                               ; preds = %10
  call void @llvm.lifetime.start.p0(i64 16, ptr %3) #24
  call void @_ZN8pybind1118gil_scoped_acquireC2Ev(ptr noundef nonnull align 8 dereferenceable(10) %3)
  call void @llvm.lifetime.start.p0(i64 8, ptr %4) #24
  invoke void @_ZN8pybind1112get_overrideIZ32test_submodule_virtual_functionsRNS_7module_EE2A2EENS_8functionEPKT_PKc(ptr dead_on_unwind writable sret(%"class.pybind11::function") align 8 %4, ptr noundef %9, ptr noundef @.str.17)
          to label %12 unwind label %16

12:                                               ; preds = %11
  %13 = call noundef zeroext i1 @_ZNK8pybind116handlecvbEv(ptr noundef nonnull align 8 dereferenceable(8) %4)
  br i1 %13, label %14, label %24

14:                                               ; preds = %12
  call void @llvm.lifetime.start.p0(i64 8, ptr %7) #24
  invoke void @_ZNK8pybind116detail10object_apiINS_6handleEEclILNS_19return_value_policyE1EJEEENS_6objectEDpOT0_(ptr dead_on_unwind writable sret(%"class.pybind11::object") align 8 %7, ptr noundef nonnull align 1 dereferenceable(1) %4)
          to label %15 unwind label %20

15:                                               ; preds = %14
  call void @_ZN8pybind116detail9cast_safeIvEENSt9enable_ifIXsr3std7is_voidIT_EE5valueEvE4typeEONS_6objectE(ptr noundef nonnull align 8 dereferenceable(8) %7)
  store i32 1, ptr %8, align 4
  call void @_ZN8pybind116objectD2Ev(ptr noundef nonnull align 8 dereferenceable(8) %7) #24
  call void @llvm.lifetime.end.p0(i64 8, ptr %7) #24
  br label %25

16:                                               ; preds = %11
  %17 = landingpad { ptr, i32 }
          cleanup
  %18 = extractvalue { ptr, i32 } %17, 0
  store ptr %18, ptr %5, align 8
  %19 = extractvalue { ptr, i32 } %17, 1
  store i32 %19, ptr %6, align 4
  br label %29

20:                                               ; preds = %14
  %21 = landingpad { ptr, i32 }
          cleanup
  %22 = extractvalue { ptr, i32 } %21, 0
  store ptr %22, ptr %5, align 8
  %23 = extractvalue { ptr, i32 } %21, 1
  store i32 %23, ptr %6, align 4
  call void @llvm.lifetime.end.p0(i64 8, ptr %7) #24
  call void @_ZN8pybind116objectD2Ev(ptr noundef nonnull align 8 dereferenceable(8) %4) #24
  br label %29

24:                                               ; preds = %12
  store i32 0, ptr %8, align 4
  br label %25

25:                                               ; preds = %24, %15
  call void @_ZN8pybind116objectD2Ev(ptr noundef nonnull align 8 dereferenceable(8) %4) #24
  call void @llvm.lifetime.end.p0(i64 8, ptr %4) #24
  call void @_ZN8pybind1118gil_scoped_acquireD2Ev(ptr noundef nonnull align 8 dereferenceable(10) %3) #24
  call void @llvm.lifetime.end.p0(i64 16, ptr %3) #24
  %26 = load i32, ptr %8, align 4
  switch i32 %26, label %36 [
    i32 0, label %27
    i32 1, label %30
  ]

27:                                               ; preds = %25
  br label %28

28:                                               ; preds = %27
  call void @_ZZ32test_submodule_virtual_functionsRN8pybind117module_EEN2A21fEv(ptr noundef nonnull align 8 dereferenceable(8) %9)
  br label %30

29:                                               ; preds = %20, %16
  call void @llvm.lifetime.end.p0(i64 8, ptr %4) #24
  call void @_ZN8pybind1118gil_scoped_acquireD2Ev(ptr noundef nonnull align 8 dereferenceable(10) %3) #24
  call void @llvm.lifetime.end.p0(i64 16, ptr %3) #24
  br label %31

30:                                               ; preds = %25, %28
  ret void

31:                                               ; preds = %29
  %32 = load ptr, ptr %5, align 8
  %33 = load i32, ptr %6, align 4
  %34 = insertvalue { ptr, i32 } poison, ptr %32, 0
  %35 = insertvalue { ptr, i32 } %34, i32 %33, 1
  resume { ptr, i32 } %35

36:                                               ; preds = %25
  unreachable
}