; Function Attrs: mustprogress uwtable
define internal void @_ZZ32test_submodule_virtual_functionsRN8pybind117module_EEN4PyA21fEv(ptr noundef nonnull align 8 dereferenceable(8) %0) unnamed_addr #5 align 2 personality ptr @__gxx_personality_v0 {
  %2 = alloca %"struct.std::type_index", align 8
  %3 = alloca %"class.pybind11::gil_scoped_acquire", align 8
  %4 = alloca %"class.pybind11::function", align 8
  %5 = alloca %"class.pybind11::object", align 8
  tail call void @_ZN8pybind115printILNS_19return_value_policyE1EJRA9_KcEEEvDpOT0_(ptr noundef nonnull align 1 dereferenceable(9) @.str.241)
  call void @llvm.lifetime.start.p0(i64 16, ptr nonnull %3) #31
  call void @_ZN8pybind1118gil_scoped_acquireC2Ev(ptr noundef nonnull align 8 dereferenceable(10) %3)
  call void @llvm.lifetime.start.p0(i64 8, ptr nonnull %4) #31
  call void @llvm.lifetime.start.p0(i64 8, ptr nonnull %2) #31, !noalias !2213
  store ptr @_ZTIZ32test_submodule_virtual_functionsRN8pybind117module_EE2A2, ptr %2, align 8, !tbaa !146, !noalias !2213
  %6 = invoke noundef ptr @_ZN8pybind116detail13get_type_infoERKSt10type_indexb(ptr noundef nonnull align 8 dereferenceable(8) %2, i1 noundef zeroext false)
          to label %.noexc unwind label %18

.noexc:                                           ; preds = %1
  call void @llvm.lifetime.end.p0(i64 8, ptr nonnull %2) #31, !noalias !2213
  %.not.i = icmp eq ptr %6, null
  br i1 %.not.i, label %_ZN8pybind1112get_overrideIZ32test_submodule_virtual_functionsRNS_7module_EE2A2EENS_8functionEPKT_PKc.exit.thread, label %7

7:                                                ; preds = %.noexc
  invoke void @_ZN8pybind116detail17get_type_overrideEPKvPKNS0_9type_infoEPKc(ptr dead_on_unwind nonnull writable sret(%"class.pybind11::function") align 8 %4, ptr noundef nonnull %0, ptr noundef nonnull %6, ptr noundef nonnull @.str.17)
          to label %_ZN8pybind1112get_overrideIZ32test_submodule_virtual_functionsRNS_7module_EE2A2EENS_8functionEPKT_PKc.exit unwind label %18

_ZN8pybind1112get_overrideIZ32test_submodule_virtual_functionsRNS_7module_EE2A2EENS_8functionEPKT_PKc.exit: ; preds = %7
  %.pr = load ptr, ptr %4, align 8, !tbaa !80
  %.not = icmp eq ptr %.pr, null
  br i1 %.not, label %_ZN8pybind1112get_overrideIZ32test_submodule_virtual_functionsRNS_7module_EE2A2EENS_8functionEPKT_PKc.exit.thread, label %8

8:                                                ; preds = %_ZN8pybind1112get_overrideIZ32test_submodule_virtual_functionsRNS_7module_EE2A2EENS_8functionEPKT_PKc.exit
  call void @llvm.lifetime.start.p0(i64 8, ptr nonnull %5) #31
  invoke void @_ZNK8pybind116detail10object_apiINS_6handleEEclILNS_19return_value_policyE1EJEEENS_6objectEDpOT0_(ptr dead_on_unwind nonnull writable sret(%"class.pybind11::object") align 8 %5, ptr noundef nonnull align 1 dereferenceable(1) %4)
          to label %9 unwind label %20

9:                                                ; preds = %8
  %10 = load ptr, ptr %5, align 8, !tbaa !80
  %.not.i.i.i = icmp eq ptr %10, null
  br i1 %.not.i.i.i, label %22, label %11

11:                                               ; preds = %9
  %12 = load i64, ptr %10, align 8, !tbaa !81
  %13 = add nsw i64 %12, -1
  store i64 %13, ptr %10, align 8, !tbaa !81
  %.not.i.i.i.i = icmp eq i64 %13, 0
  br i1 %.not.i.i.i.i, label %14, label %22

14:                                               ; preds = %11
  invoke void @_Py_Dealloc(ptr noundef nonnull %10)
          to label %22 unwind label %15

15:                                               ; preds = %14
  %16 = landingpad { ptr, i32 }
          catch ptr null
  %17 = extractvalue { ptr, i32 } %16, 0
  call void @__clang_call_terminate(ptr %17) #32
  unreachable

18:                                               ; preds = %7, %1
  %19 = landingpad { ptr, i32 }
          cleanup
  br label %30

20:                                               ; preds = %8
  %21 = landingpad { ptr, i32 }
          cleanup
  call void @llvm.lifetime.end.p0(i64 8, ptr nonnull %5) #31
  call void @_ZN8pybind116objectD2Ev(ptr noundef nonnull align 8 dereferenceable(8) %4) #31
  br label %30

22:                                               ; preds = %14, %11, %9
  call void @llvm.lifetime.end.p0(i64 8, ptr nonnull %5) #31
  %.pr10 = load ptr, ptr %4, align 8, !tbaa !80
  %.not.i.i.i7 = icmp eq ptr %.pr10, null
  br i1 %.not.i.i.i7, label %_ZN8pybind116objectD2Ev.exit9.thread, label %23

23:                                               ; preds = %22
  %24 = load i64, ptr %.pr10, align 8, !tbaa !81
  %25 = add nsw i64 %24, -1
  store i64 %25, ptr %.pr10, align 8, !tbaa !81
  %.not.i.i.i.i8 = icmp eq i64 %25, 0
  br i1 %.not.i.i.i.i8, label %26, label %_ZN8pybind116objectD2Ev.exit9.thread

26:                                               ; preds = %23
  invoke void @_Py_Dealloc(ptr noundef nonnull %.pr10)
          to label %_ZN8pybind116objectD2Ev.exit9.thread unwind label %27

27:                                               ; preds = %26
  %28 = landingpad { ptr, i32 }
          catch ptr null
  %29 = extractvalue { ptr, i32 } %28, 0
  call void @__clang_call_terminate(ptr %29) #32
  unreachable

_ZN8pybind116objectD2Ev.exit9.thread:             ; preds = %22, %23, %26
  call void @llvm.lifetime.end.p0(i64 8, ptr nonnull %4) #31
  call void @_ZN8pybind1118gil_scoped_acquireD2Ev(ptr noundef nonnull align 8 dereferenceable(10) %3) #31
  call void @llvm.lifetime.end.p0(i64 16, ptr nonnull %3) #31
  br label %31

_ZN8pybind1112get_overrideIZ32test_submodule_virtual_functionsRNS_7module_EE2A2EENS_8functionEPKT_PKc.exit.thread: ; preds = %.noexc, %_ZN8pybind1112get_overrideIZ32test_submodule_virtual_functionsRNS_7module_EE2A2EENS_8functionEPKT_PKc.exit
  call void @llvm.lifetime.end.p0(i64 8, ptr nonnull %4) #31
  call void @_ZN8pybind1118gil_scoped_acquireD2Ev(ptr noundef nonnull align 8 dereferenceable(10) %3) #31
  call void @llvm.lifetime.end.p0(i64 16, ptr nonnull %3) #31
  call void @_ZN8pybind115printILNS_19return_value_policyE1EJRA7_KcEEEvDpOT0_(ptr noundef nonnull align 1 dereferenceable(7) @.str.239)
  br label %31

30:                                               ; preds = %20, %18
  %.pn = phi { ptr, i32 } [ %21, %20 ], [ %19, %18 ]
  call void @llvm.lifetime.end.p0(i64 8, ptr nonnull %4) #31
  call void @_ZN8pybind1118gil_scoped_acquireD2Ev(ptr noundef nonnull align 8 dereferenceable(10) %3) #31
  call void @llvm.lifetime.end.p0(i64 16, ptr nonnull %3) #31
  resume { ptr, i32 } %.pn

31:                                               ; preds = %_ZN8pybind116objectD2Ev.exit9.thread, %_ZN8pybind1112get_overrideIZ32test_submodule_virtual_functionsRNS_7module_EE2A2EENS_8functionEPKT_PKc.exit.thread
  ret void
}